; Function Attrs: mustprogress ssp uwtable
define hidden void @_ZN6open3d1t21pybind_t_declarationsERN8pybind117module_E(ptr noundef nonnull align 8 dereferenceable(8) %0) local_unnamed_addr #5 personality ptr @__gxx_personality_v0 {
  %2 = alloca %"class.pybind11::module_", align 8
  call void @llvm.lifetime.start.p0(i64 8, ptr nonnull %2) #28
  call void @_ZN8pybind117module_13def_submoduleEPKcS2_(ptr dead_on_unwind nonnull writable sret(%"class.pybind11::module_") align 8 %2, ptr noundef nonnull align 8 dereferenceable(8) %0, ptr noundef nonnull @.str, ptr noundef null)
  invoke void @_ZN6open3d1t9pipelines29pybind_pipelines_declarationsERN8pybind117module_E(ptr noundef nonnull align 8 dereferenceable(8) %2)
          to label %3 unwind label %17

3:                                                ; preds = %1
  invoke void @_ZN6open3d1t8geometry28pybind_geometry_declarationsERN8pybind117module_E(ptr noundef nonnull align 8 dereferenceable(8) %2)
          to label %4 unwind label %17

4:                                                ; preds = %3
  invoke void @_ZN6open3d1t2io22pybind_io_declarationsERN8pybind117module_E(ptr noundef nonnull align 8 dereferenceable(8) %2)
          to label %5 unwind label %17

5:                                                ; preds = %4
  %6 = load ptr, ptr %2, align 8, !tbaa !112
  %.not.i.i.i = icmp eq ptr %6, null
  br i1 %.not.i.i.i, label %_ZN8pybind116objectD2Ev.exit, label %7

7:                                                ; preds = %5
  %8 = load i64, ptr %6, align 8, !tbaa !111
  %9 = and i64 %8, 2147483648
  %.not2.i.i.i = icmp eq i64 %9, 0
  br i1 %.not2.i.i.i, label %10, label %_ZN8pybind116objectD2Ev.exit

10:                                               ; preds = %7
  %11 = add nsw i64 %8, -1
  store i64 %11, ptr %6, align 8, !tbaa !111
  %12 = icmp eq i64 %11, 0
  br i1 %12, label %13, label %_ZN8pybind116objectD2Ev.exit

13:                                               ; preds = %10
  invoke void @_Py_Dealloc(ptr noundef nonnull %6)
          to label %_ZN8pybind116objectD2Ev.exit unwind label %14

14:                                               ; preds = %13
  %15 = landingpad { ptr, i32 }
          catch ptr null
  %16 = extractvalue { ptr, i32 } %15, 0
  call void @__clang_call_terminate(ptr %16) #29
  unreachable

_ZN8pybind116objectD2Ev.exit:                     ; preds = %5, %7, %10, %13
  call void @llvm.lifetime.end.p0(i64 8, ptr nonnull %2) #28
  ret void

17:                                               ; preds = %4, %3, %1
  %18 = landingpad { ptr, i32 }
          cleanup
  call void @_ZN8pybind116objectD2Ev(ptr noundef nonnull align 8 dereferenceable(8) %2) #28
  call void @llvm.lifetime.end.p0(i64 8, ptr nonnull %2) #28
  resume { ptr, i32 } %18
}